target datalayout = "e-m:e-p270:32:32-p271:32:32-p272:64:64-i64:64-i128:128-f80:128-n8:16:32:64-S128"
target triple = "x86_64-pc-linux-gnu"

%struct.Rwr_Man4_t_ = type { i32, ptr, ptr, i32, i32 }

@s_pManRwrExp4 = internal global ptr null, align 8
@.str = private unnamed_addr constant [40 x i8] c"Number of cuts considered       = %8d.\0A\00", align 1
@.str.1 = private unnamed_addr constant [40 x i8] c"Classes occurring at least once = %8d.\0A\00", align 1
@.str.2 = private unnamed_addr constant [40 x i8] c"Occurence = %6d.  Num classes = %4d.  \0A\00", align 1
@.str.3 = private unnamed_addr constant [46 x i8] c"Occurence = %6d.  Num classes = %4d.  Repr = \00", align 1
@stdout = external global ptr, align 8
@.str.4 = private unnamed_addr constant [2 x i8] c"\0A\00", align 1
@.str.5 = private unnamed_addr constant [20 x i8] c"npnclass_stats4.txt\00", align 1
@.str.6 = private unnamed_addr constant [2 x i8] c"w\00", align 1
@.str.7 = private unnamed_addr constant [7 x i8] c" %10d\0A\00", align 1
@.str.8 = private unnamed_addr constant [36 x i8] c"%d classes written into file \22%s\22.\0A\00", align 1

; Function Attrs: nounwind uwtable
define void @Rwt_Man4ExplorePrint() #0 {
  %1 = alloca ptr, align 8
  %2 = alloca i32, align 4
  %3 = alloca i32, align 4
  %4 = alloca i32, align 4
  %5 = alloca i32, align 4
  %6 = alloca i32, align 4
  %7 = alloca ptr, align 8
  %8 = alloca ptr, align 8
  call void @llvm.lifetime.start.p0(i64 8, ptr %1) #10
  call void @llvm.lifetime.start.p0(i64 4, ptr %2) #10
  call void @llvm.lifetime.start.p0(i64 4, ptr %3) #10
  call void @llvm.lifetime.start.p0(i64 4, ptr %4) #10
  call void @llvm.lifetime.start.p0(i64 4, ptr %5) #10
  call void @llvm.lifetime.start.p0(i64 4, ptr %6) #10
  call void @llvm.lifetime.start.p0(i64 8, ptr %7) #10
  call void @llvm.lifetime.start.p0(i64 8, ptr %8) #10
  store i32 0, ptr %6, align 4, !tbaa !14
  store i32 0, ptr %5, align 4, !tbaa !14
  store i32 0, ptr %3, align 4, !tbaa !14
  store i32 0, ptr %2, align 4, !tbaa !14
  br label %9

9:                                                ; preds = %55, %0
  %10 = load i32, ptr %2, align 4, !tbaa !14
  %11 = load ptr, ptr @s_pManRwrExp4, align 8, !tbaa !3
  %12 = getelementptr inbounds nuw %struct.Rwr_Man4_t_, ptr %11, i32 0, i32 0
  %13 = load i32, ptr %12, align 8, !tbaa !8
  %14 = icmp slt i32 %10, %13
  br i1 %14, label %15, label %58

15:                                               ; preds = %9
  %16 = load i32, ptr %3, align 4, !tbaa !14
  %17 = load ptr, ptr @s_pManRwrExp4, align 8, !tbaa !3
  %18 = getelementptr inbounds nuw %struct.Rwr_Man4_t_, ptr %17, i32 0, i32 2
  %19 = load ptr, ptr %18, align 8, !tbaa !13
  %20 = load i32, ptr %2, align 4, !tbaa !14
  %21 = sext i32 %20 to i64
  %22 = getelementptr inbounds i32, ptr %19, i64 %21
  %23 = load i32, ptr %22, align 4, !tbaa !14
  %24 = icmp slt i32 %16, %23
  br i1 %24, label %25, label %33

25:                                               ; preds = %15
  %26 = load ptr, ptr @s_pManRwrExp4, align 8, !tbaa !3
  %27 = getelementptr inbounds nuw %struct.Rwr_Man4_t_, ptr %26, i32 0, i32 2
  %28 = load ptr, ptr %27, align 8, !tbaa !13
  %29 = load i32, ptr %2, align 4, !tbaa !14
  %30 = sext i32 %29 to i64
  %31 = getelementptr inbounds i32, ptr %28, i64 %30
  %32 = load i32, ptr %31, align 4, !tbaa !14
  store i32 %32, ptr %3, align 4, !tbaa !14
  br label %33

33:                                               ; preds = %25, %15
  %34 = load ptr, ptr @s_pManRwrExp4, align 8, !tbaa !3
  %35 = getelementptr inbounds nuw %struct.Rwr_Man4_t_, ptr %34, i32 0, i32 2
  %36 = load ptr, ptr %35, align 8, !tbaa !13
  %37 = load i32, ptr %2, align 4, !tbaa !14
  %38 = sext i32 %37 to i64
  %39 = getelementptr inbounds i32, ptr %36, i64 %38
  %40 = load i32, ptr %39, align 4, !tbaa !14
  %41 = load i32, ptr %5, align 4, !tbaa !14
  %42 = add nsw i32 %41, %40
  store i32 %42, ptr %5, align 4, !tbaa !14
  %43 = load ptr, ptr @s_pManRwrExp4, align 8, !tbaa !3
  %44 = getelementptr inbounds nuw %struct.Rwr_Man4_t_, ptr %43, i32 0, i32 2
  %45 = load ptr, ptr %44, align 8, !tbaa !13
  %46 = load i32, ptr %2, align 4, !tbaa !14
  %47 = sext i32 %46 to i64
  %48 = getelementptr inbounds i32, ptr %45, i64 %47
  %49 = load i32, ptr %48, align 4, !tbaa !14
  %50 = icmp sgt i32 %49, 0
  br i1 %50, label %51, label %54

51:                                               ; preds = %33
  %52 = load i32, ptr %6, align 4, !tbaa !14
  %53 = add nsw i32 %52, 1
  store i32 %53, ptr %6, align 4, !tbaa !14
  br label %54

54:                                               ; preds = %51, %33
  br label %55

55:                                               ; preds = %54
  %56 = load i32, ptr %2, align 4, !tbaa !14
  %57 = add nsw i32 %56, 1
  store i32 %57, ptr %2, align 4, !tbaa !14
  br label %9, !llvm.loop !18

58:                                               ; preds = %9
  %59 = load i32, ptr %5, align 4, !tbaa !14
  %60 = call i32 (ptr, ...) @printf(ptr noundef @.str, i32 noundef %59)
  %61 = load i32, ptr %6, align 4, !tbaa !14
  %62 = call i32 (ptr, ...) @printf(ptr noundef @.str.1, i32 noundef %61)
  %63 = load i32, ptr %3, align 4, !tbaa !14
  %64 = add nsw i32 %63, 1
  %65 = sext i32 %64 to i64
  %66 = mul i64 4, %65
  %67 = call noalias ptr @malloc(i64 noundef %66) #11
  store ptr %67, ptr %7, align 8, !tbaa !20
  %68 = load i32, ptr %3, align 4, !tbaa !14
  %69 = add nsw i32 %68, 1
  %70 = sext i32 %69 to i64
  %71 = mul i64 4, %70
  %72 = call noalias ptr @malloc(i64 noundef %71) #11
  store ptr %72, ptr %8, align 8, !tbaa !20
  %73 = load ptr, ptr %7, align 8, !tbaa !20
  %74 = load i32, ptr %3, align 4, !tbaa !14
  %75 = add nsw i32 %74, 1
  %76 = sext i32 %75 to i64
  %77 = mul i64 4, %76
  call void @llvm.memset.p0.i64(ptr align 4 %73, i8 0, i64 %77, i1 false)
  store i32 0, ptr %2, align 4, !tbaa !14
  br label %78

78:                                               ; preds = %108, %58
  %79 = load i32, ptr %2, align 4, !tbaa !14
  %80 = load ptr, ptr @s_pManRwrExp4, align 8, !tbaa !3
  %81 = getelementptr inbounds nuw %struct.Rwr_Man4_t_, ptr %80, i32 0, i32 0
  %82 = load i32, ptr %81, align 8, !tbaa !8
  %83 = icmp slt i32 %79, %82
  br i1 %83, label %84, label %111

84:                                               ; preds = %78
  %85 = load ptr, ptr %7, align 8, !tbaa !20
  %86 = load ptr, ptr @s_pManRwrExp4, align 8, !tbaa !3
  %87 = getelementptr inbounds nuw %struct.Rwr_Man4_t_, ptr %86, i32 0, i32 2
  %88 = load ptr, ptr %87, align 8, !tbaa !13
  %89 = load i32, ptr %2, align 4, !tbaa !14
  %90 = sext i32 %89 to i64
  %91 = getelementptr inbounds i32, ptr %88, i64 %90
  %92 = load i32, ptr %91, align 4, !tbaa !14
  %93 = sext i32 %92 to i64
  %94 = getelementptr inbounds i32, ptr %85, i64 %93
  %95 = load i32, ptr %94, align 4, !tbaa !14
  %96 = add nsw i32 %95, 1
  store i32 %96, ptr %94, align 4, !tbaa !14
  %97 = load i32, ptr %2, align 4, !tbaa !14
  %98 = load ptr, ptr %8, align 8, !tbaa !20
  %99 = load ptr, ptr @s_pManRwrExp4, align 8, !tbaa !3
  %100 = getelementptr inbounds nuw %struct.Rwr_Man4_t_, ptr %99, i32 0, i32 2
  %101 = load ptr, ptr %100, align 8, !tbaa !13
  %102 = load i32, ptr %2, align 4, !tbaa !14
  %103 = sext i32 %102 to i64
  %104 = getelementptr inbounds i32, ptr %101, i64 %103
  %105 = load i32, ptr %104, align 4, !tbaa !14
  %106 = sext i32 %105 to i64
  %107 = getelementptr inbounds i32, ptr %98, i64 %106
  store i32 %97, ptr %107, align 4, !tbaa !14
  br label %108

108:                                              ; preds = %84
  %109 = load i32, ptr %2, align 4, !tbaa !14
  %110 = add nsw i32 %109, 1
  store i32 %110, ptr %2, align 4, !tbaa !14
  br label %78, !llvm.loop !21

111:                                              ; preds = %78
  %112 = load i32, ptr %6, align 4, !tbaa !14
  %113 = sub nsw i32 2288, %112
  %114 = call i32 (ptr, ...) @printf(ptr noundef @.str.2, i32 noundef 0, i32 noundef %113)
  store i32 1, ptr %2, align 4, !tbaa !14
  br label %115

115:                                              ; preds = %141, %111
  %116 = load i32, ptr %2, align 4, !tbaa !14
  %117 = load i32, ptr %3, align 4, !tbaa !14
  %118 = icmp sle i32 %116, %117
  br i1 %118, label %119, label %144

119:                                              ; preds = %115
  %120 = load ptr, ptr %7, align 8, !tbaa !20
  %121 = load i32, ptr %2, align 4, !tbaa !14
  %122 = sext i32 %121 to i64
  %123 = getelementptr inbounds i32, ptr %120, i64 %122
  %124 = load i32, ptr %123, align 4, !tbaa !14
  %125 = icmp ne i32 %124, 0
  br i1 %125, label %126, label %140

126:                                              ; preds = %119
  %127 = load i32, ptr %2, align 4, !tbaa !14
  %128 = load ptr, ptr %7, align 8, !tbaa !20
  %129 = load i32, ptr %2, align 4, !tbaa !14
  %130 = sext i32 %129 to i64
  %131 = getelementptr inbounds i32, ptr %128, i64 %130
  %132 = load i32, ptr %131, align 4, !tbaa !14
  %133 = call i32 (ptr, ...) @printf(ptr noundef @.str.3, i32 noundef %127, i32 noundef %132)
  %134 = load ptr, ptr @stdout, align 8, !tbaa !22
  %135 = load ptr, ptr %8, align 8, !tbaa !20
  %136 = load i32, ptr %2, align 4, !tbaa !14
  %137 = sext i32 %136 to i64
  %138 = getelementptr inbounds i32, ptr %135, i64 %137
  call void @Extra_PrintBinary(ptr noundef %134, ptr noundef %138, i32 noundef 16)
  %139 = call i32 (ptr, ...) @printf(ptr noundef @.str.4)
  br label %140

140:                                              ; preds = %126, %119
  br label %141

141:                                              ; preds = %140
  %142 = load i32, ptr %2, align 4, !tbaa !14
  %143 = add nsw i32 %142, 1
  store i32 %143, ptr %2, align 4, !tbaa !14
  br label %115, !llvm.loop !24

144:                                              ; preds = %115
  %145 = load ptr, ptr %7, align 8, !tbaa !20
  %146 = icmp ne ptr %145, null
  br i1 %146, label %147, label %149

147:                                              ; preds = %144
  %148 = load ptr, ptr %7, align 8, !tbaa !20
  call void @free(ptr noundef %148) #10
  store ptr null, ptr %7, align 8, !tbaa !20
  br label %150

149:                                              ; preds = %144
  br label %150

150:                                              ; preds = %149, %147
  %151 = load ptr, ptr %8, align 8, !tbaa !20
  %152 = icmp ne ptr %151, null
  br i1 %152, label %153, label %155

153:                                              ; preds = %150
  %154 = load ptr, ptr %8, align 8, !tbaa !20
  call void @free(ptr noundef %154) #10
  store ptr null, ptr %8, align 8, !tbaa !20
  br label %156

155:                                              ; preds = %150
  br label %156

156:                                              ; preds = %155, %153
  store i32 0, ptr %4, align 4, !tbaa !14
  %157 = call noalias ptr @fopen(ptr noundef @.str.5, ptr noundef @.str.6)
  store ptr %157, ptr %1, align 8, !tbaa !22
  store i32 0, ptr %2, align 4, !tbaa !14
  br label %158

158:                                              ; preds = %187, %156
  %159 = load i32, ptr %2, align 4, !tbaa !14
  %160 = load ptr, ptr @s_pManRwrExp4, align 8, !tbaa !3
  %161 = getelementptr inbounds nuw %struct.Rwr_Man4_t_, ptr %160, i32 0, i32 0
  %162 = load i32, ptr %161, align 8, !tbaa !8
  %163 = icmp slt i32 %159, %162
  br i1 %163, label %164, label %190

164:                                              ; preds = %158
  %165 = load ptr, ptr @s_pManRwrExp4, align 8, !tbaa !3
  %166 = getelementptr inbounds nuw %struct.Rwr_Man4_t_, ptr %165, i32 0, i32 2
  %167 = load ptr, ptr %166, align 8, !tbaa !13
  %168 = load i32, ptr %2, align 4, !tbaa !14
  %169 = sext i32 %168 to i64
  %170 = getelementptr inbounds i32, ptr %167, i64 %169
  %171 = load i32, ptr %170, align 4, !tbaa !14
  %172 = icmp sgt i32 %171, 0
  br i1 %172, label %173, label %186

173:                                              ; preds = %164
  %174 = load ptr, ptr %1, align 8, !tbaa !22
  call void @Extra_PrintHex(ptr noundef %174, ptr noundef %2, i32 noundef 4)
  %175 = load ptr, ptr %1, align 8, !tbaa !22
  %176 = load ptr, ptr @s_pManRwrExp4, align 8, !tbaa !3
  %177 = getelementptr inbounds nuw %struct.Rwr_Man4_t_, ptr %176, i32 0, i32 2
  %178 = load ptr, ptr %177, align 8, !tbaa !13
  %179 = load i32, ptr %2, align 4, !tbaa !14
  %180 = sext i32 %179 to i64
  %181 = getelementptr inbounds i32, ptr %178, i64 %180
  %182 = load i32, ptr %181, align 4, !tbaa !14
  %183 = call i32 (ptr, ptr, ...) @fprintf(ptr noundef %175, ptr noundef @.str.7, i32 noundef %182) #10
  %184 = load i32, ptr %4, align 4, !tbaa !14
  %185 = add nsw i32 %184, 1
  store i32 %185, ptr %4, align 4, !tbaa !14
  br label %186

186:                                              ; preds = %173, %164
  br label %187

187:                                              ; preds = %186
  %188 = load i32, ptr %2, align 4, !tbaa !14
  %189 = add nsw i32 %188, 1
  store i32 %189, ptr %2, align 4, !tbaa !14
  br label %158, !llvm.loop !25

190:                                              ; preds = %158
  %191 = load ptr, ptr %1, align 8, !tbaa !22
  %192 = call i32 @fclose(ptr noundef %191)
  %193 = load i32, ptr %4, align 4, !tbaa !14
  %194 = call i32 (ptr, ...) @printf(ptr noundef @.str.8, i32 noundef %193, ptr noundef @.str.5)
  call void @llvm.lifetime.end.p0(i64 8, ptr %8) #10
  call void @llvm.lifetime.end.p0(i64 8, ptr %7) #10
  call void @llvm.lifetime.end.p0(i64 4, ptr %6) #10
  call void @llvm.lifetime.end.p0(i64 4, ptr %5) #10
  call void @llvm.lifetime.end.p0(i64 4, ptr %4) #10
  call void @llvm.lifetime.end.p0(i64 4, ptr %3) #10
  call void @llvm.lifetime.end.p0(i64 4, ptr %2) #10
  call void @llvm.lifetime.end.p0(i64 8, ptr %1) #10
  ret void
}