; Function Attrs: nounwind uwtable
define void @Rwt_Man4ExplorePrint() local_unnamed_addr #0 {
  %1 = alloca i32, align 4
  call void @llvm.lifetime.start.p0(i64 4, ptr nonnull %1) #18
  %2 = load ptr, ptr @s_pManRwrExp4, align 8, !tbaa !12
  %3 = load i32, ptr %2, align 8, !tbaa !3
  %4 = icmp sgt i32 %3, 0
  br i1 %4, label %.lr.ph, label %._crit_edge

.lr.ph:                                           ; preds = %0
  %5 = getelementptr inbounds nuw i8, ptr %2, i64 16
  %6 = load ptr, ptr %5, align 8, !tbaa !11
  %7 = zext nneg i32 %3 to i64
  br label %8

8:                                                ; preds = %.lr.ph, %8
  %indvars.iv = phi i64 [ 0, %.lr.ph ], [ %indvars.iv.next, %8 ]
  %.045 = phi i32 [ 0, %.lr.ph ], [ %.1, %8 ]
  %.02444 = phi i32 [ 0, %.lr.ph ], [ %11, %8 ]
  %.02743 = phi i32 [ 0, %.lr.ph ], [ %spec.select, %8 ]
  %9 = getelementptr inbounds nuw i32, ptr %6, i64 %indvars.iv
  %10 = load i32, ptr %9, align 4, !tbaa !17
  %spec.select = tail call i32 @llvm.smax.i32(i32 %.02743, i32 %10)
  %11 = add nsw i32 %10, %.02444
  %12 = icmp sgt i32 %10, 0
  %13 = zext i1 %12 to i32
  %.1 = add nuw nsw i32 %.045, %13
  %indvars.iv.next = add nuw nsw i64 %indvars.iv, 1
  %14 = trunc nuw nsw i64 %indvars.iv.next to i32
  store i32 %14, ptr %1, align 4, !tbaa !17
  %15 = icmp samesign ult i64 %indvars.iv.next, %7
  br i1 %15, label %8, label %._crit_edge, !llvm.loop !18

._crit_edge:                                      ; preds = %8, %0
  %.027.lcssa = phi i32 [ 0, %0 ], [ %spec.select, %8 ]
  %.024.lcssa = phi i32 [ 0, %0 ], [ %11, %8 ]
  %.0.lcssa = phi i32 [ 0, %0 ], [ %.1, %8 ]
  %16 = tail call i32 (ptr, ...) @printf(ptr noundef nonnull dereferenceable(1) @.str, i32 noundef %.024.lcssa)
  %17 = tail call i32 (ptr, ...) @printf(ptr noundef nonnull dereferenceable(1) @.str.1, i32 noundef %.0.lcssa)
  %18 = add nuw i32 %.027.lcssa, 1
  %19 = zext i32 %18 to i64
  %20 = shl nuw nsw i64 %19, 2
  %calloc = tail call ptr @calloc(i64 1, i64 %20)
  %21 = tail call noalias ptr @malloc(i64 noundef %20) #19
  %22 = load ptr, ptr @s_pManRwrExp4, align 8, !tbaa !12
  %23 = load i32, ptr %22, align 8, !tbaa !3
  %24 = icmp sgt i32 %23, 0
  br i1 %24, label %.lr.ph50, label %._crit_edge51

.lr.ph50:                                         ; preds = %._crit_edge
  %25 = getelementptr inbounds nuw i8, ptr %22, i64 16
  %26 = load ptr, ptr %25, align 8, !tbaa !11
  %27 = zext nneg i32 %23 to i64
  br label %28

28:                                               ; preds = %.lr.ph50, %28
  %indvars.iv66 = phi i64 [ 0, %.lr.ph50 ], [ %indvars.iv.next67, %28 ]
  %29 = getelementptr inbounds nuw i32, ptr %26, i64 %indvars.iv66
  %30 = load i32, ptr %29, align 4, !tbaa !17
  %31 = sext i32 %30 to i64
  %32 = getelementptr inbounds i32, ptr %calloc, i64 %31
  %33 = load i32, ptr %32, align 4, !tbaa !17
  %34 = add nsw i32 %33, 1
  store i32 %34, ptr %32, align 4, !tbaa !17
  %35 = getelementptr inbounds i32, ptr %21, i64 %31
  %36 = trunc nuw nsw i64 %indvars.iv66 to i32
  store i32 %36, ptr %35, align 4, !tbaa !17
  %indvars.iv.next67 = add nuw nsw i64 %indvars.iv66, 1
  %37 = icmp samesign ult i64 %indvars.iv.next67, %27
  br i1 %37, label %28, label %._crit_edge51, !llvm.loop !20

._crit_edge51:                                    ; preds = %28, %._crit_edge
  %38 = sub nsw i32 2288, %.0.lcssa
  %39 = tail call i32 (ptr, ...) @printf(ptr noundef nonnull dereferenceable(1) @.str.2, i32 noundef 0, i32 noundef %38)
  %.not52 = icmp slt i32 %.027.lcssa, 1
  br i1 %.not52, label %._crit_edge56, label %.lr.ph55

.lr.ph55:                                         ; preds = %._crit_edge51, %47
  %indvars.iv69 = phi i64 [ %indvars.iv.next70, %47 ], [ 1, %._crit_edge51 ]
  %40 = getelementptr inbounds nuw i32, ptr %calloc, i64 %indvars.iv69
  %41 = load i32, ptr %40, align 4, !tbaa !17
  %.not41 = icmp eq i32 %41, 0
  br i1 %.not41, label %47, label %42

42:                                               ; preds = %.lr.ph55
  %43 = trunc nuw nsw i64 %indvars.iv69 to i32
  %44 = tail call i32 (ptr, ...) @printf(ptr noundef nonnull dereferenceable(1) @.str.3, i32 noundef %43, i32 noundef %41)
  %45 = load ptr, ptr @stdout, align 8, !tbaa !21
  %46 = getelementptr inbounds nuw i32, ptr %21, i64 %indvars.iv69
  tail call void @Extra_PrintBinary(ptr noundef %45, ptr noundef nonnull %46, i32 noundef 16) #18
  %putchar = tail call i32 @putchar(i32 10)
  br label %47

47:                                               ; preds = %.lr.ph55, %42
  %indvars.iv.next70 = add nuw nsw i64 %indvars.iv69, 1
  %exitcond.not = icmp eq i64 %indvars.iv.next70, %19
  br i1 %exitcond.not, label %._crit_edge56, label %.lr.ph55, !llvm.loop !23

._crit_edge56:                                    ; preds = %47, %._crit_edge51
  tail call void @free(ptr noundef %calloc) #18
  %.not39 = icmp eq ptr %21, null
  br i1 %.not39, label %49, label %48

48:                                               ; preds = %._crit_edge56
  tail call void @free(ptr noundef nonnull %21) #18
  br label %49

49:                                               ; preds = %._crit_edge56, %48
  %50 = tail call noalias ptr @fopen(ptr noundef nonnull @.str.5, ptr noundef nonnull @.str.6)
  store i32 0, ptr %1, align 4, !tbaa !17
  %51 = load ptr, ptr @s_pManRwrExp4, align 8, !tbaa !12
  %52 = load i32, ptr %51, align 8, !tbaa !3
  %53 = icmp sgt i32 %52, 0
  br i1 %53, label %.lr.ph61, label %._crit_edge62

.lr.ph61:                                         ; preds = %49, %71
  %54 = phi ptr [ %72, %71 ], [ %51, %49 ]
  %.02559 = phi i32 [ %.126, %71 ], [ 0, %49 ]
  %storemerge4058 = phi i32 [ %74, %71 ], [ 0, %49 ]
  %55 = getelementptr inbounds nuw i8, ptr %54, i64 16
  %56 = load ptr, ptr %55, align 8, !tbaa !11
  %57 = sext i32 %storemerge4058 to i64
  %58 = getelementptr inbounds i32, ptr %56, i64 %57
  %59 = load i32, ptr %58, align 4, !tbaa !17
  %60 = icmp sgt i32 %59, 0
  br i1 %60, label %61, label %71

61:                                               ; preds = %.lr.ph61
  call void @Extra_PrintHex(ptr noundef %50, ptr noundef nonnull %1, i32 noundef 4) #18
  %62 = load ptr, ptr @s_pManRwrExp4, align 8, !tbaa !12
  %63 = getelementptr inbounds nuw i8, ptr %62, i64 16
  %64 = load ptr, ptr %63, align 8, !tbaa !11
  %65 = load i32, ptr %1, align 4, !tbaa !17
  %66 = sext i32 %65 to i64
  %67 = getelementptr inbounds i32, ptr %64, i64 %66
  %68 = load i32, ptr %67, align 4, !tbaa !17
  %69 = call i32 (ptr, ptr, ...) @fprintf(ptr noundef %50, ptr noundef nonnull @.str.7, i32 noundef %68) #18
  %70 = add nsw i32 %.02559, 1
  %.pre = load i32, ptr %1, align 4, !tbaa !17
  %.pre72 = load ptr, ptr @s_pManRwrExp4, align 8, !tbaa !12
  br label %71

71:                                               ; preds = %.lr.ph61, %61
  %72 = phi ptr [ %.pre72, %61 ], [ %54, %.lr.ph61 ]
  %73 = phi i32 [ %.pre, %61 ], [ %storemerge4058, %.lr.ph61 ]
  %.126 = phi i32 [ %70, %61 ], [ %.02559, %.lr.ph61 ]
  %74 = add nsw i32 %73, 1
  store i32 %74, ptr %1, align 4, !tbaa !17
  %75 = load i32, ptr %72, align 8, !tbaa !3
  %76 = icmp slt i32 %74, %75
  br i1 %76, label %.lr.ph61, label %._crit_edge62, !llvm.loop !24

._crit_edge62:                                    ; preds = %71, %49
  %.025.lcssa = phi i32 [ 0, %49 ], [ %.126, %71 ]
  %77 = call i32 @fclose(ptr noundef %50)
  %78 = call i32 (ptr, ...) @printf(ptr noundef nonnull dereferenceable(1) @.str.8, i32 noundef %.025.lcssa, ptr noundef nonnull @.str.5)
  call void @llvm.lifetime.end.p0(i64 4, ptr nonnull %1) #18
  ret void
}